; Function Attrs: mustprogress nounwind uwtable
define hidden noundef nonnull align 8 dereferenceable(36) ptr @_ZN4llvh11raw_ostream10write_uuidEPKh(ptr noundef nonnull returned align 8 dereferenceable(36) %this, ptr nocapture noundef readonly %UUID) local_unnamed_addr #0 align 2 {
entry:
  %ref.tmp = alloca %"class.llvh::format_object", align 8
  %Fmt.i.i.i = getelementptr inbounds i8, ptr %ref.tmp, i64 8
  %Vals.i.i = getelementptr inbounds i8, ptr %ref.tmp, i64 16
  %OutBufEnd.i5.i = getelementptr inbounds i8, ptr %this, i64 16
  %OutBufCur.i6.i = getelementptr inbounds i8, ptr %this, i64 24
  br label %for.body

for.body:                                         ; preds = %entry, %for.inc
  %indvars.iv = phi i64 [ 0, %entry ], [ %indvars.iv.next, %for.inc ]
  %arrayidx = getelementptr inbounds i8, ptr %UUID, i64 %indvars.iv
  call void @llvm.experimental.noalias.scope.decl(metadata !4)
  store ptr @.str, ptr %Fmt.i.i.i, align 8, !alias.scope !4
  store ptr getelementptr inbounds ({ [4 x ptr] }, ptr @_ZTVN4llvh13format_objectIJhEEE, i64 0, i32 0, i64 2), ptr %ref.tmp, align 8, !alias.scope !4
  %0 = load i8, ptr %arrayidx, align 1, !noalias !4
  store i8 %0, ptr %Vals.i.i, align 8, !alias.scope !4
  %call = call noundef nonnull align 8 dereferenceable(36) ptr @_ZN4llvh11raw_ostreamlsERKNS_18format_object_baseE(ptr noundef nonnull align 8 dereferenceable(36) %this, ptr noundef nonnull align 8 dereferenceable(16) %ref.tmp)
  %1 = trunc i64 %indvars.iv to i32
  %2 = and i32 %1, 11
  %3 = icmp eq i32 %2, 3
  br i1 %3, label %if.then, label %switch.early.test

switch.early.test:                                ; preds = %for.body
  switch i32 %1, label %for.inc [
    i32 9, label %if.then
    i32 5, label %if.then
  ]

if.then:                                          ; preds = %switch.early.test, %switch.early.test, %for.body
  %4 = load ptr, ptr %OutBufEnd.i5.i, align 8
  %5 = load ptr, ptr %OutBufCur.i6.i, align 8
  %cmp.i.i = icmp eq ptr %4, %5
  br i1 %cmp.i.i, label %if.then.i.i, label %if.then4.i.i

if.then.i.i:                                      ; preds = %if.then
  %call3.i.i = call noundef nonnull align 8 dereferenceable(36) ptr @_ZN4llvh11raw_ostream5writeEPKcm(ptr noundef nonnull align 8 dereferenceable(36) %this, ptr noundef nonnull @.str.1, i64 noundef 1)
  br label %for.inc

if.then4.i.i:                                     ; preds = %if.then
  store i8 45, ptr %5, align 1
  %6 = load ptr, ptr %OutBufCur.i6.i, align 8
  %add.ptr.i.i = getelementptr inbounds i8, ptr %6, i64 1
  store ptr %add.ptr.i.i, ptr %OutBufCur.i6.i, align 8
  br label %for.inc

for.inc:                                          ; preds = %switch.early.test, %if.then4.i.i, %if.then.i.i
  %indvars.iv.next = add nuw nsw i64 %indvars.iv, 1
  %exitcond.not = icmp eq i64 %indvars.iv.next, 16
  br i1 %exitcond.not, label %for.end, label %for.body, !llvm.loop !7

for.end:                                          ; preds = %for.inc
  ret ptr %this
}